; Function Attrs: nounwind uwtable
define i64 @l___private_Lean_Compiler_LCNF_DeclHash_0__Lean_Compiler_LCNF_hashDeclValue____x40_Lean_Compiler_LCNF_DeclHash___hyg_273_(ptr noundef %0) local_unnamed_addr #0 {
  %2 = ptrtoint ptr %0 to i64
  %3 = and i64 %2, 1
  %.not.i = icmp eq i64 %3, 0
  br i1 %.not.i, label %7, label %4

4:                                                ; preds = %1
  %5 = lshr i64 %2, 1
  %6 = trunc i64 %5 to i32
  br label %lean_obj_tag.exit

7:                                                ; preds = %1
  %8 = getelementptr i8, ptr %0, i64 4
  %.val.i = load i32, ptr %8, align 4
  %9 = lshr i32 %.val.i, 24
  br label %lean_obj_tag.exit

lean_obj_tag.exit:                                ; preds = %4, %7
  %.0.i = phi i32 [ %6, %4 ], [ %9, %7 ]
  %10 = icmp eq i32 %.0.i, 0
  %11 = getelementptr inbounds nuw i8, ptr %0, i64 8
  %12 = load ptr, ptr %11, align 8, !tbaa !4
  br i1 %10, label %13, label %16

13:                                               ; preds = %lean_obj_tag.exit
  %14 = tail call i64 @l_Lean_Compiler_LCNF_hashCode(ptr noundef %12)
  %15 = tail call i64 @lean_uint64_mix_hash(i64 noundef 0, i64 noundef %14) #3
  br label %19

16:                                               ; preds = %lean_obj_tag.exit
  %17 = tail call i64 @l___private_Lean_Compiler_ExternAttr_0__Lean_hashExternAttrData____x40_Lean_Compiler_ExternAttr___hyg_456_(ptr noundef %12) #3
  %18 = tail call i64 @lean_uint64_mix_hash(i64 noundef 1, i64 noundef %17) #3
  br label %19

19:                                               ; preds = %16, %13
  %.0 = phi i64 [ %15, %13 ], [ %18, %16 ]
  ret i64 %.0
}